; ModuleID = '22/493.c'
source_filename = "22/493.c"
target datalayout = "e-m:e-p270:32:32-p271:32:32-p272:64:64-i64:64-f80:128-n8:16:32:64-S128"
target triple = "x86_64-pc-linux-gnu"

@.str = private unnamed_addr constant [3 x i8] c"%d\00", align 1
@.str.1 = private unnamed_addr constant [3 x i8] c"%c\00", align 1
@.str.2 = private unnamed_addr constant [3 x i8] c"No\00", align 1

; Function Attrs: noinline nounwind uwtable
define dso_local i32 @main() #0 {
  %1 = alloca i32, align 4
  %2 = alloca [1000 x i32], align 16
  %3 = alloca i32, align 4
  %4 = alloca i32, align 4
  %5 = alloca i32, align 4
  %6 = alloca i32, align 4
  %7 = alloca i32, align 4
  %8 = alloca i8, align 1
  store i32 0, i32* %1, align 4
  store i32 1, i32* %3, align 4
  br label %9

9:                                                ; preds = %21, %0
  %10 = load i32, i32* %3, align 4
  %11 = sub nsw i32 %10, 1
  %12 = sext i32 %11 to i64
  %13 = getelementptr inbounds [1000 x i32], [1000 x i32]* %2, i64 0, i64 %12
  %14 = call i32 (i8*, ...) @__isoc99_scanf(i8* getelementptr inbounds ([3 x i8], [3 x i8]* @.str, i64 0, i64 0), i32* %13)
  %15 = call i32 (i8*, ...) @__isoc99_scanf(i8* getelementptr inbounds ([3 x i8], [3 x i8]* @.str.1, i64 0, i64 0), i8* %8)
  %16 = load i8, i8* %8, align 1
  %17 = sext i8 %16 to i32
  %18 = icmp eq i32 %17, 10
  br i1 %18, label %19, label %20

19:                                               ; preds = %9
  br label %24

20:                                               ; preds = %9
  br label %21

21:                                               ; preds = %20
  %22 = load i32, i32* %3, align 4
  %23 = add nsw i32 %22, 1
  store i32 %23, i32* %3, align 4
  br label %9

24:                                               ; preds = %19
  %25 = load i32, i32* %3, align 4
  store i32 %25, i32* %5, align 4
  store i32 1, i32* %6, align 4
  br label %26

26:                                               ; preds = %74, %24
  %27 = load i32, i32* %6, align 4
  %28 = load i32, i32* %5, align 4
  %29 = sub nsw i32 %28, 1
  %30 = icmp sle i32 %27, %29
  br i1 %30, label %31, label %77

31:                                               ; preds = %26
  %32 = load i32, i32* %5, align 4
  store i32 %32, i32* %7, align 4
  br label %33

33:                                               ; preds = %70, %31
  %34 = load i32, i32* %7, align 4
  %35 = load i32, i32* %6, align 4
  %36 = add nsw i32 %35, 1
  %37 = icmp sge i32 %34, %36
  br i1 %37, label %38, label %73

38:                                               ; preds = %33
  %39 = load i32, i32* %7, align 4
  %40 = sub nsw i32 %39, 1
  %41 = sext i32 %40 to i64
  %42 = getelementptr inbounds [1000 x i32], [1000 x i32]* %2, i64 0, i64 %41
  %43 = load i32, i32* %42, align 4
  %44 = load i32, i32* %7, align 4
  %45 = sub nsw i32 %44, 2
  %46 = sext i32 %45 to i64
  %47 = getelementptr inbounds [1000 x i32], [1000 x i32]* %2, i64 0, i64 %46
  %48 = load i32, i32* %47, align 4
  %49 = call i32 @max(i32 %43, i32 %48)
  store i32 %49, i32* %4, align 4
  %50 = load i32, i32* %7, align 4
  %51 = sub nsw i32 %50, 1
  %52 = sext i32 %51 to i64
  %53 = getelementptr inbounds [1000 x i32], [1000 x i32]* %2, i64 0, i64 %52
  %54 = load i32, i32* %53, align 4
  %55 = load i32, i32* %7, align 4
  %56 = sub nsw i32 %55, 2
  %57 = sext i32 %56 to i64
  %58 = getelementptr inbounds [1000 x i32], [1000 x i32]* %2, i64 0, i64 %57
  %59 = load i32, i32* %58, align 4
  %60 = call i32 @min(i32 %54, i32 %59)
  %61 = load i32, i32* %7, align 4
  %62 = sub nsw i32 %61, 1
  %63 = sext i32 %62 to i64
  %64 = getelementptr inbounds [1000 x i32], [1000 x i32]* %2, i64 0, i64 %63
  store i32 %60, i32* %64, align 4
  %65 = load i32, i32* %4, align 4
  %66 = load i32, i32* %7, align 4
  %67 = sub nsw i32 %66, 2
  %68 = sext i32 %67 to i64
  %69 = getelementptr inbounds [1000 x i32], [1000 x i32]* %2, i64 0, i64 %68
  store i32 %65, i32* %69, align 4
  br label %70

70:                                               ; preds = %38
  %71 = load i32, i32* %7, align 4
  %72 = add nsw i32 %71, -1
  store i32 %72, i32* %7, align 4
  br label %33

73:                                               ; preds = %33
  br label %74

74:                                               ; preds = %73
  %75 = load i32, i32* %6, align 4
  %76 = add nsw i32 %75, 1
  store i32 %76, i32* %6, align 4
  br label %26

77:                                               ; preds = %26
  store i32 1, i32* %3, align 4
  br label %78

78:                                               ; preds = %96, %77
  %79 = load i32, i32* %3, align 4
  %80 = load i32, i32* %5, align 4
  %81 = sub nsw i32 %80, 1
  %82 = icmp sle i32 %79, %81
  br i1 %82, label %83, label %99

83:                                               ; preds = %78
  %84 = load i32, i32* %3, align 4
  %85 = sub nsw i32 %84, 1
  %86 = sext i32 %85 to i64
  %87 = getelementptr inbounds [1000 x i32], [1000 x i32]* %2, i64 0, i64 %86
  %88 = load i32, i32* %87, align 4
  %89 = load i32, i32* %3, align 4
  %90 = sext i32 %89 to i64
  %91 = getelementptr inbounds [1000 x i32], [1000 x i32]* %2, i64 0, i64 %90
  %92 = load i32, i32* %91, align 4
  %93 = icmp ne i32 %88, %92
  br i1 %93, label %94, label %95

94:                                               ; preds = %83
  br label %99

95:                                               ; preds = %83
  br label %96

96:                                               ; preds = %95
  %97 = load i32, i32* %3, align 4
  %98 = add nsw i32 %97, 1
  store i32 %98, i32* %3, align 4
  br label %78

99:                                               ; preds = %94, %78
  %100 = load i32, i32* %3, align 4
  %101 = load i32, i32* %5, align 4
  %102 = sub nsw i32 %101, 1
  %103 = icmp slt i32 %100, %102
  br i1 %103, label %104, label %110

104:                                              ; preds = %99
  %105 = load i32, i32* %3, align 4
  %106 = sext i32 %105 to i64
  %107 = getelementptr inbounds [1000 x i32], [1000 x i32]* %2, i64 0, i64 %106
  %108 = load i32, i32* %107, align 4
  %109 = call i32 (i8*, ...) @printf(i8* getelementptr inbounds ([3 x i8], [3 x i8]* @.str, i64 0, i64 0), i32 %108)
  br label %124

110:                                              ; preds = %99
  %111 = load i32, i32* %3, align 4
  %112 = load i32, i32* %5, align 4
  %113 = sub nsw i32 %112, 1
  %114 = icmp eq i32 %111, %113
  br i1 %114, label %115, label %121

115:                                              ; preds = %110
  %116 = load i32, i32* %3, align 4
  %117 = sext i32 %116 to i64
  %118 = getelementptr inbounds [1000 x i32], [1000 x i32]* %2, i64 0, i64 %117
  %119 = load i32, i32* %118, align 4
  %120 = call i32 (i8*, ...) @printf(i8* getelementptr inbounds ([3 x i8], [3 x i8]* @.str, i64 0, i64 0), i32 %119)
  br label %123

121:                                              ; preds = %110
  %122 = call i32 (i8*, ...) @printf(i8* getelementptr inbounds ([3 x i8], [3 x i8]* @.str.2, i64 0, i64 0))
  br label %123

123:                                              ; preds = %121, %115
  br label %124

124:                                              ; preds = %123, %104
  ret i32 0
}

declare dso_local i32 @__isoc99_scanf(i8*, ...) #1

; Function Attrs: noinline nounwind uwtable
define dso_local i32 @max(i32 %0, i32 %1) #0 {
  %3 = alloca i32, align 4
  %4 = alloca i32, align 4
  %5 = alloca i32, align 4
  store i32 %0, i32* %3, align 4
  store i32 %1, i32* %4, align 4
  %6 = load i32, i32* %3, align 4
  %7 = load i32, i32* %4, align 4
  %8 = icmp slt i32 %6, %7
  br i1 %8, label %9, label %11

9:                                                ; preds = %2
  %10 = load i32, i32* %4, align 4
  store i32 %10, i32* %5, align 4
  br label %13

11:                                               ; preds = %2
  %12 = load i32, i32* %3, align 4
  store i32 %12, i32* %5, align 4
  br label %13

13:                                               ; preds = %11, %9
  %14 = load i32, i32* %5, align 4
  ret i32 %14
}

; Function Attrs: noinline nounwind uwtable
define dso_local i32 @min(i32 %0, i32 %1) #0 {
  %3 = alloca i32, align 4
  %4 = alloca i32, align 4
  %5 = alloca i32, align 4
  store i32 %0, i32* %3, align 4
  store i32 %1, i32* %4, align 4
  %6 = load i32, i32* %3, align 4
  %7 = load i32, i32* %4, align 4
  %8 = icmp sgt i32 %6, %7
  br i1 %8, label %9, label %11

9:                                                ; preds = %2
  %10 = load i32, i32* %4, align 4
  store i32 %10, i32* %5, align 4
  br label %13

11:                                               ; preds = %2
  %12 = load i32, i32* %3, align 4
  store i32 %12, i32* %5, align 4
  br label %13

13:                                               ; preds = %11, %9
  %14 = load i32, i32* %5, align 4
  ret i32 %14
}

declare dso_local i32 @printf(i8*, ...) #1


!llvm.module.flags = !{!0}
!llvm.ident = !{!1}

!0 = !{i32 1, !"wchar_size", i32 4}
!1 = !{!"clang version 10.0.0-4ubuntu1 "}
